target datalayout = "e-m:e-p270:32:32-p271:32:32-p272:64:64-i64:64-i128:128-f80:128-n8:16:32:64-S128"
target triple = "x86_64-pc-linux-gnu"

%struct._GtkTreeIter = type { i32, ptr, ptr, ptr }
%struct.display_data = type { i64, i32, ptr, i8, i32, ptr, ptr, ptr, ptr, ptr, ptr, ptr, ptr }
%struct.treedata_t = type { %struct._GtkTreeIter, ptr, ptr }
%struct.each_t = type { ptr, ptr, ptr }

@global_row_count = external global i32, align 4
@.str.63 = private unnamed_addr constant [24 x i8] c"common admin got %d %d\0A\00", align 1
@.str.64 = private unnamed_addr constant [18 x i8] c"common got %d %d\0A\00", align 1

; Function Attrs: nounwind uwtable
define internal void @_selected_page(ptr noundef %0, ptr noundef %1) #0 {
  %3 = alloca ptr, align 8
  %4 = alloca ptr, align 8
  %5 = alloca ptr, align 8
  %6 = alloca %struct.each_t, align 8
  store ptr %0, ptr %3, align 8
  store ptr %1, ptr %4, align 8
  call void @llvm.lifetime.start.p0(i64 8, ptr %5) #11
  %7 = load ptr, ptr %4, align 8
  %8 = getelementptr inbounds nuw %struct.display_data, ptr %7, i32 0, i32 11
  %9 = load ptr, ptr %8, align 8
  store ptr %9, ptr %5, align 8
  call void @llvm.lifetime.start.p0(i64 24, ptr %6) #11
  call void @llvm.memset.p0.i64(ptr align 8 %6, i8 0, i64 24, i1 false)
  %10 = load ptr, ptr %5, align 8
  %11 = getelementptr inbounds nuw %struct.treedata_t, ptr %10, i32 0, i32 2
  %12 = load ptr, ptr %11, align 8
  %13 = getelementptr inbounds nuw %struct.each_t, ptr %6, i32 0, i32 2
  store ptr %12, ptr %13, align 8
  %14 = load ptr, ptr %4, align 8
  %15 = getelementptr inbounds nuw %struct.each_t, ptr %6, i32 0, i32 0
  store ptr %14, ptr %15, align 8
  %16 = load ptr, ptr %5, align 8
  %17 = getelementptr inbounds nuw %struct.treedata_t, ptr %16, i32 0, i32 2
  %18 = load ptr, ptr %17, align 8
  %19 = call ptr @gtk_tree_view_get_selection(ptr noundef %18)
  %20 = call i32 @gtk_tree_selection_count_selected_rows(ptr noundef %19)
  store i32 %20, ptr @global_row_count, align 4
  %21 = load ptr, ptr %4, align 8
  %22 = getelementptr inbounds nuw %struct.display_data, ptr %21, i32 0, i32 4
  %23 = load i32, ptr %22, align 4
  %24 = and i32 %23, 65535
  switch i32 %24, label %111 [
    i32 1, label %25
    i32 0, label %27
    i32 4, label %29
    i32 2, label %31
    i32 3, label %33
    i32 5, label %35
    i32 7, label %37
  ]

25:                                               ; preds = %2
  %26 = getelementptr inbounds nuw %struct.each_t, ptr %6, i32 0, i32 1
  store ptr @popup_all_part, ptr %26, align 8
  br label %118

27:                                               ; preds = %2
  %28 = getelementptr inbounds nuw %struct.each_t, ptr %6, i32 0, i32 1
  store ptr @popup_all_job, ptr %28, align 8
  br label %118

29:                                               ; preds = %2
  %30 = getelementptr inbounds nuw %struct.each_t, ptr %6, i32 0, i32 1
  store ptr @popup_all_node, ptr %30, align 8
  br label %118

31:                                               ; preds = %2
  %32 = getelementptr inbounds nuw %struct.each_t, ptr %6, i32 0, i32 1
  store ptr @popup_all_resv, ptr %32, align 8
  br label %118

33:                                               ; preds = %2
  %34 = getelementptr inbounds nuw %struct.each_t, ptr %6, i32 0, i32 1
  store ptr @popup_all_bb, ptr %34, align 8
  br label %118

35:                                               ; preds = %2
  %36 = getelementptr inbounds nuw %struct.each_t, ptr %6, i32 0, i32 1
  store ptr @popup_all_front_end, ptr %36, align 8
  br label %118

37:                                               ; preds = %2
  %38 = load ptr, ptr %4, align 8
  %39 = getelementptr inbounds nuw %struct.display_data, ptr %38, i32 0, i32 1
  %40 = load i32, ptr %39, align 8
  switch i32 %40, label %103 [
    i32 0, label %41
    i32 1, label %53
    i32 5, label %63
    i32 2, label %73
    i32 4, label %83
    i32 3, label %93
  ]

41:                                               ; preds = %37
  %42 = load ptr, ptr %5, align 8
  %43 = getelementptr inbounds nuw %struct.treedata_t, ptr %42, i32 0, i32 1
  %44 = load ptr, ptr %43, align 8
  %45 = load ptr, ptr %5, align 8
  %46 = getelementptr inbounds nuw %struct.treedata_t, ptr %45, i32 0, i32 0
  %47 = load ptr, ptr %4, align 8
  %48 = getelementptr inbounds nuw %struct.display_data, ptr %47, i32 0, i32 2
  %49 = load ptr, ptr %48, align 8
  %50 = load ptr, ptr %5, align 8
  %51 = getelementptr inbounds nuw %struct.treedata_t, ptr %50, i32 0, i32 2
  %52 = load ptr, ptr %51, align 8
  call void @admin_job(ptr noundef %44, ptr noundef %46, ptr noundef %49, ptr noundef %52)
  br label %110

53:                                               ; preds = %37
  %54 = load ptr, ptr %5, align 8
  %55 = getelementptr inbounds nuw %struct.treedata_t, ptr %54, i32 0, i32 1
  %56 = load ptr, ptr %55, align 8
  %57 = load ptr, ptr %5, align 8
  %58 = getelementptr inbounds nuw %struct.treedata_t, ptr %57, i32 0, i32 0
  %59 = load ptr, ptr %4, align 8
  %60 = load ptr, ptr %5, align 8
  %61 = getelementptr inbounds nuw %struct.treedata_t, ptr %60, i32 0, i32 2
  %62 = load ptr, ptr %61, align 8
  call void @select_admin_partitions(ptr noundef %56, ptr noundef %58, ptr noundef %59, ptr noundef %62)
  br label %110

63:                                               ; preds = %37
  %64 = load ptr, ptr %5, align 8
  %65 = getelementptr inbounds nuw %struct.treedata_t, ptr %64, i32 0, i32 1
  %66 = load ptr, ptr %65, align 8
  %67 = load ptr, ptr %5, align 8
  %68 = getelementptr inbounds nuw %struct.treedata_t, ptr %67, i32 0, i32 0
  %69 = load ptr, ptr %4, align 8
  %70 = load ptr, ptr %5, align 8
  %71 = getelementptr inbounds nuw %struct.treedata_t, ptr %70, i32 0, i32 2
  %72 = load ptr, ptr %71, align 8
  call void @select_admin_front_end(ptr noundef %66, ptr noundef %68, ptr noundef %69, ptr noundef %72)
  br label %110

73:                                               ; preds = %37
  %74 = load ptr, ptr %5, align 8
  %75 = getelementptr inbounds nuw %struct.treedata_t, ptr %74, i32 0, i32 1
  %76 = load ptr, ptr %75, align 8
  %77 = load ptr, ptr %5, align 8
  %78 = getelementptr inbounds nuw %struct.treedata_t, ptr %77, i32 0, i32 0
  %79 = load ptr, ptr %4, align 8
  %80 = load ptr, ptr %5, align 8
  %81 = getelementptr inbounds nuw %struct.treedata_t, ptr %80, i32 0, i32 2
  %82 = load ptr, ptr %81, align 8
  call void @select_admin_resv(ptr noundef %76, ptr noundef %78, ptr noundef %79, ptr noundef %82)
  br label %110

83:                                               ; preds = %37
  %84 = load ptr, ptr %5, align 8
  %85 = getelementptr inbounds nuw %struct.treedata_t, ptr %84, i32 0, i32 1
  %86 = load ptr, ptr %85, align 8
  %87 = load ptr, ptr %5, align 8
  %88 = getelementptr inbounds nuw %struct.treedata_t, ptr %87, i32 0, i32 0
  %89 = load ptr, ptr %4, align 8
  %90 = load ptr, ptr %5, align 8
  %91 = getelementptr inbounds nuw %struct.treedata_t, ptr %90, i32 0, i32 2
  %92 = load ptr, ptr %91, align 8
  call void @select_admin_nodes(ptr noundef %86, ptr noundef %88, ptr noundef %89, i32 noundef -2, ptr noundef %92)
  br label %110

93:                                               ; preds = %37
  %94 = load ptr, ptr %5, align 8
  %95 = getelementptr inbounds nuw %struct.treedata_t, ptr %94, i32 0, i32 1
  %96 = load ptr, ptr %95, align 8
  %97 = load ptr, ptr %5, align 8
  %98 = getelementptr inbounds nuw %struct.treedata_t, ptr %97, i32 0, i32 0
  %99 = load ptr, ptr %4, align 8
  %100 = load ptr, ptr %5, align 8
  %101 = getelementptr inbounds nuw %struct.treedata_t, ptr %100, i32 0, i32 2
  %102 = load ptr, ptr %101, align 8
  call void @select_admin_bb(ptr noundef %96, ptr noundef %98, ptr noundef %99, ptr noundef %102)
  br label %110

103:                                              ; preds = %37
  %104 = load ptr, ptr %4, align 8
  %105 = getelementptr inbounds nuw %struct.display_data, ptr %104, i32 0, i32 4
  %106 = load i32, ptr %105, align 4
  %107 = load ptr, ptr %4, align 8
  %108 = getelementptr inbounds nuw %struct.display_data, ptr %107, i32 0, i32 1
  %109 = load i32, ptr %108, align 8
  call void (ptr, ...) @g_print(ptr noundef @.str.63, i32 noundef %106, i32 noundef %109)
  br label %110

110:                                              ; preds = %103, %93, %83, %73, %63, %53, %41
  br label %118

111:                                              ; preds = %2
  %112 = load ptr, ptr %4, align 8
  %113 = getelementptr inbounds nuw %struct.display_data, ptr %112, i32 0, i32 4
  %114 = load i32, ptr %113, align 4
  %115 = load ptr, ptr %4, align 8
  %116 = getelementptr inbounds nuw %struct.display_data, ptr %115, i32 0, i32 1
  %117 = load i32, ptr %116, align 8
  call void (ptr, ...) @g_print(ptr noundef @.str.64, i32 noundef %114, i32 noundef %117)
  br label %118

118:                                              ; preds = %111, %110, %35, %33, %31, %29, %27, %25
  %119 = getelementptr inbounds nuw %struct.each_t, ptr %6, i32 0, i32 1
  %120 = load ptr, ptr %119, align 8
  %121 = icmp ne ptr %120, null
  br i1 %121, label %122, label %127

122:                                              ; preds = %118
  %123 = load ptr, ptr %5, align 8
  %124 = getelementptr inbounds nuw %struct.treedata_t, ptr %123, i32 0, i32 2
  %125 = load ptr, ptr %124, align 8
  %126 = call ptr @gtk_tree_view_get_selection(ptr noundef %125)
  call void @gtk_tree_selection_selected_foreach(ptr noundef %126, ptr noundef @_foreach_popup_all, ptr noundef %6)
  br label %127

127:                                              ; preds = %122, %118
  call void @slurm_xfree(ptr noundef %5)
  call void @llvm.lifetime.end.p0(i64 24, ptr %6) #11
  call void @llvm.lifetime.end.p0(i64 8, ptr %5) #11
  ret void
}