; Function Attrs: nounwind uwtable
define internal void @_selected_page(ptr readnone captures(none) %0, ptr noundef %1) #2 {
  %3 = alloca ptr, align 8
  %4 = alloca %struct.each_t, align 8
  call void @llvm.lifetime.start.p0(i64 8, ptr nonnull %3) #16
  %5 = getelementptr inbounds nuw i8, ptr %1, i64 80
  %6 = load ptr, ptr %5, align 8
  store ptr %6, ptr %3, align 8
  call void @llvm.lifetime.start.p0(i64 24, ptr nonnull %4) #16
  %7 = getelementptr inbounds nuw i8, ptr %4, i64 8
  store i64 0, ptr %7, align 8
  %8 = getelementptr inbounds nuw i8, ptr %6, i64 40
  %9 = load ptr, ptr %8, align 8
  %10 = getelementptr inbounds nuw i8, ptr %4, i64 16
  store ptr %9, ptr %10, align 8
  store ptr %1, ptr %4, align 8
  %11 = tail call ptr @gtk_tree_view_get_selection(ptr noundef %9) #16
  %12 = tail call i32 @gtk_tree_selection_count_selected_rows(ptr noundef %11) #16
  store i32 %12, ptr @global_row_count, align 4
  %13 = getelementptr inbounds nuw i8, ptr %1, i64 28
  %14 = load i32, ptr %13, align 4
  %trunc = trunc i32 %14 to i16
  switch i16 %trunc, label %50 [
    i16 1, label %53
    i16 0, label %15
    i16 4, label %16
    i16 2, label %17
    i16 3, label %18
    i16 5, label %19
    i16 7, label %20
  ]

15:                                               ; preds = %2
  br label %53

16:                                               ; preds = %2
  br label %53

17:                                               ; preds = %2
  br label %53

18:                                               ; preds = %2
  br label %53

19:                                               ; preds = %2
  br label %53

20:                                               ; preds = %2
  %21 = getelementptr inbounds nuw i8, ptr %1, i64 8
  %22 = load i32, ptr %21, align 8
  switch i32 %22, label %49 [
    i32 0, label %23
    i32 1, label %29
    i32 5, label %33
    i32 2, label %37
    i32 4, label %41
    i32 3, label %45
  ]

23:                                               ; preds = %20
  %24 = getelementptr inbounds nuw i8, ptr %6, i64 32
  %25 = load ptr, ptr %24, align 8
  %26 = getelementptr inbounds nuw i8, ptr %1, i64 16
  %27 = load ptr, ptr %26, align 8
  %28 = load ptr, ptr %8, align 8
  tail call void @admin_job(ptr noundef %25, ptr noundef nonnull %6, ptr noundef %27, ptr noundef %28) #16
  br label %.thread

29:                                               ; preds = %20
  %30 = getelementptr inbounds nuw i8, ptr %6, i64 32
  %31 = load ptr, ptr %30, align 8
  %32 = load ptr, ptr %8, align 8
  tail call void @select_admin_partitions(ptr noundef %31, ptr noundef nonnull %6, ptr noundef nonnull %1, ptr noundef %32) #16
  br label %.thread

33:                                               ; preds = %20
  %34 = getelementptr inbounds nuw i8, ptr %6, i64 32
  %35 = load ptr, ptr %34, align 8
  %36 = load ptr, ptr %8, align 8
  tail call void @select_admin_front_end(ptr noundef %35, ptr noundef nonnull %6, ptr noundef nonnull %1, ptr noundef %36) #16
  br label %.thread

37:                                               ; preds = %20
  %38 = getelementptr inbounds nuw i8, ptr %6, i64 32
  %39 = load ptr, ptr %38, align 8
  %40 = load ptr, ptr %8, align 8
  tail call void @select_admin_resv(ptr noundef %39, ptr noundef nonnull %6, ptr noundef nonnull %1, ptr noundef %40) #16
  br label %.thread

41:                                               ; preds = %20
  %42 = getelementptr inbounds nuw i8, ptr %6, i64 32
  %43 = load ptr, ptr %42, align 8
  %44 = load ptr, ptr %8, align 8
  tail call void @select_admin_nodes(ptr noundef %43, ptr noundef nonnull %6, ptr noundef nonnull %1, i32 noundef -2, ptr noundef %44) #16
  br label %.thread

45:                                               ; preds = %20
  %46 = getelementptr inbounds nuw i8, ptr %6, i64 32
  %47 = load ptr, ptr %46, align 8
  %48 = load ptr, ptr %8, align 8
  tail call void @select_admin_bb(ptr noundef %47, ptr noundef nonnull %6, ptr noundef nonnull %1, ptr noundef %48) #16
  br label %.thread

49:                                               ; preds = %20
  tail call void (ptr, ...) @g_print(ptr noundef nonnull @.str.63, i32 noundef %14, i32 noundef %22) #16
  br label %.thread

50:                                               ; preds = %2
  %51 = getelementptr inbounds nuw i8, ptr %1, i64 8
  %52 = load i32, ptr %51, align 8
  tail call void (ptr, ...) @g_print(ptr noundef nonnull @.str.64, i32 noundef %14, i32 noundef %52) #16
  br label %.thread

53:                                               ; preds = %2, %15, %16, %17, %18, %19
  %popup_all_part.sink = phi ptr [ @popup_all_job, %15 ], [ @popup_all_node, %16 ], [ @popup_all_resv, %17 ], [ @popup_all_bb, %18 ], [ @popup_all_front_end, %19 ], [ @popup_all_part, %2 ]
  %54 = getelementptr inbounds nuw i8, ptr %4, i64 8
  store ptr %popup_all_part.sink, ptr %54, align 8
  %55 = load ptr, ptr %8, align 8
  %56 = tail call ptr @gtk_tree_view_get_selection(ptr noundef %55) #16
  call void @gtk_tree_selection_selected_foreach(ptr noundef %56, ptr noundef nonnull @_foreach_popup_all, ptr noundef nonnull %4) #16
  br label %.thread

.thread:                                          ; preds = %50, %49, %45, %41, %37, %33, %29, %23, %53
  call void @slurm_xfree(ptr noundef nonnull %3) #16
  call void @llvm.lifetime.end.p0(i64 24, ptr nonnull %4) #16
  call void @llvm.lifetime.end.p0(i64 8, ptr nonnull %3) #16
  ret void
}